; Function Attrs: mustprogress nounwind uwtable
define void @_ZN5Ipopt13CGPenaltyDataD2Ev(ptr nocapture noundef nonnull align 8 dereferenceable(105) %0) unnamed_addr #4 align 2 personality ptr @__gxx_personality_v0 {
  store ptr getelementptr inbounds ({ [7 x ptr] }, ptr @_ZTVN5Ipopt13CGPenaltyDataE, i64 0, i32 0, i64 2), ptr %0, align 8
  %2 = getelementptr inbounds i8, ptr %0, i64 32
  %3 = load ptr, ptr %2, align 8
  %.not.i.i = icmp eq ptr %3, null
  br i1 %.not.i.i, label %_ZN5Ipopt8SmartPtrIKNS_14IteratesVectorEED2Ev.exit, label %4

4:                                                ; preds = %1
  %5 = getelementptr inbounds i8, ptr %3, i64 8
  %6 = load i32, ptr %5, align 8
  %7 = add nsw i32 %6, -1
  store i32 %7, ptr %5, align 8
  %8 = load ptr, ptr %2, align 8
  %9 = getelementptr inbounds i8, ptr %8, i64 8
  %10 = load i32, ptr %9, align 8
  %11 = icmp eq i32 %10, 0
  br i1 %11, label %12, label %_ZN5Ipopt8SmartPtrIKNS_14IteratesVectorEED2Ev.exit

12:                                               ; preds = %4
  %13 = load ptr, ptr %8, align 8
  %14 = getelementptr inbounds i8, ptr %13, i64 8
  %15 = load ptr, ptr %14, align 8
  tail call void %15(ptr noundef nonnull align 8 dereferenceable(280) %8) #8
  br label %_ZN5Ipopt8SmartPtrIKNS_14IteratesVectorEED2Ev.exit

_ZN5Ipopt8SmartPtrIKNS_14IteratesVectorEED2Ev.exit: ; preds = %1, %4, %12
  %16 = getelementptr inbounds i8, ptr %0, i64 16
  %17 = load ptr, ptr %16, align 8
  %.not.i.i1 = icmp eq ptr %17, null
  br i1 %.not.i.i1, label %_ZN5Ipopt8SmartPtrIKNS_14IteratesVectorEED2Ev.exit2, label %18

18:                                               ; preds = %_ZN5Ipopt8SmartPtrIKNS_14IteratesVectorEED2Ev.exit
  %19 = getelementptr inbounds i8, ptr %17, i64 8
  %20 = load i32, ptr %19, align 8
  %21 = add nsw i32 %20, -1
  store i32 %21, ptr %19, align 8
  %22 = load ptr, ptr %16, align 8
  %23 = getelementptr inbounds i8, ptr %22, i64 8
  %24 = load i32, ptr %23, align 8
  %25 = icmp eq i32 %24, 0
  br i1 %25, label %26, label %_ZN5Ipopt8SmartPtrIKNS_14IteratesVectorEED2Ev.exit2

26:                                               ; preds = %18
  %27 = load ptr, ptr %22, align 8
  %28 = getelementptr inbounds i8, ptr %27, i64 8
  %29 = load ptr, ptr %28, align 8
  tail call void %29(ptr noundef nonnull align 8 dereferenceable(280) %22) #8
  br label %_ZN5Ipopt8SmartPtrIKNS_14IteratesVectorEED2Ev.exit2

_ZN5Ipopt8SmartPtrIKNS_14IteratesVectorEED2Ev.exit2: ; preds = %_ZN5Ipopt8SmartPtrIKNS_14IteratesVectorEED2Ev.exit, %18, %26
  store ptr getelementptr inbounds ({ [4 x ptr] }, ptr @_ZTVN5Ipopt16ReferencedObjectE, i64 0, i32 0, i64 2), ptr %0, align 8
  ret void
}